; ModuleID = 'source-C-CXX/61/1037.c'
source_filename = "source-C-CXX/61/1037.c"
target datalayout = "e-m:e-p270:32:32-p271:32:32-p272:64:64-i64:64-f80:128-n8:16:32:64-S128"
target triple = "x86_64-pc-linux-gnu"

; Function Attrs: nounwind sspstrong uwtable
define dso_local i32 @main() local_unnamed_addr #0 {
  %1 = alloca [100 x i8], align 16
  %2 = getelementptr inbounds [100 x i8], [100 x i8]* %1, i64 0, i64 0
  call void @llvm.lifetime.start.p0i8(i64 100, i8* nonnull %2) #4
  %3 = call i32 (i8*, ...) bitcast (i32 (...)* @gets to i32 (i8*, ...)*)(i8* nonnull %2) #4
  br label %4

4:                                                ; preds = %15, %0
  %5 = phi i64 [ 0, %0 ], [ %16, %15 ]
  %6 = getelementptr inbounds [100 x i8], [100 x i8]* %1, i64 0, i64 %5
  %7 = load i8, i8* %6, align 1, !tbaa !5
  switch i8 %7, label %8 [
    i8 0, label %24
    i8 32, label %17
  ]

8:                                                ; preds = %4
  %9 = sext i8 %7 to i32
  %10 = call i32 @putchar(i32 %9)
  %11 = load i8, i8* %6, align 1, !tbaa !5
  %12 = icmp eq i8 %11, 32
  br i1 %12, label %17, label %13

13:                                               ; preds = %8
  %14 = add nuw i64 %5, 1
  br label %15

15:                                               ; preds = %13, %17, %22
  %16 = phi i64 [ %14, %13 ], [ %18, %17 ], [ %18, %22 ]
  br label %4, !llvm.loop !8

17:                                               ; preds = %4, %8
  %18 = add nuw i64 %5, 1
  %19 = getelementptr inbounds [100 x i8], [100 x i8]* %1, i64 0, i64 %18
  %20 = load i8, i8* %19, align 1, !tbaa !5
  %21 = icmp eq i8 %20, 32
  br i1 %21, label %15, label %22

22:                                               ; preds = %17
  %23 = call i32 @putchar(i32 32)
  br label %15

24:                                               ; preds = %4
  call void @llvm.lifetime.end.p0i8(i64 100, i8* nonnull %2) #4
  ret i32 0
}

; Function Attrs: argmemonly mustprogress nofree nosync nounwind willreturn
declare void @llvm.lifetime.start.p0i8(i64 immarg, i8* nocapture) #1

declare i32 @gets(...) local_unnamed_addr #2

; Function Attrs: argmemonly mustprogress nofree nosync nounwind willreturn
declare void @llvm.lifetime.end.p0i8(i64 immarg, i8* nocapture) #1

; Function Attrs: nofree nounwind
declare noundef i32 @putchar(i32 noundef) local_unnamed_addr #3


!llvm.module.flags = !{!0, !1, !2, !3}
!llvm.ident = !{!4}

!0 = !{i32 1, !"wchar_size", i32 4}
!1 = !{i32 7, !"PIC Level", i32 2}
!2 = !{i32 7, !"PIE Level", i32 2}
!3 = !{i32 7, !"uwtable", i32 1}
!4 = !{!"clang version 13.0.0"}
!5 = !{!6, !6, i64 0}
!6 = !{!"omnipotent char", !7, i64 0}
!7 = !{!"Simple C/C++ TBAA"}
!8 = distinct !{!8, !9}
!9 = !{!"llvm.loop.mustprogress"}
